; Function Attrs: mustprogress uwtable
define hidden void @_ZN3smt10theory_str10init_modelERNS_15model_generatorE(ptr noundef nonnull align 8 captures(none) dereferenceable(1800) initializes((256, 264)) %0, ptr noundef nonnull align 8 dereferenceable(104) %1) unnamed_addr #4 align 2 {
  %3 = tail call noalias noundef ptr @_ZN6memory8allocateEm(i64 noundef 224)
  %4 = getelementptr inbounds nuw i8, ptr %0, i64 24
  %5 = load ptr, ptr %4, align 8, !tbaa !385
  %6 = getelementptr inbounds nuw i8, ptr %0, i64 8
  %7 = load i32, ptr %6, align 8, !tbaa !846
  tail call void @_ZN3smt17str_value_factoryC2ER11ast_manageri(ptr noundef nonnull align 8 dereferenceable(220) %3, ptr noundef nonnull align 8 dereferenceable(976) %5, i32 noundef %7)
  %8 = getelementptr inbounds nuw i8, ptr %0, i64 256
  store ptr %3, ptr %8, align 8, !tbaa !1423
  tail call void @_ZN3smt15model_generator16register_factoryEP13value_factory(ptr noundef nonnull align 8 dereferenceable(104) %1, ptr noundef nonnull %3)
  ret void
}